target datalayout = "e-m:e-p270:32:32-p271:32:32-p272:64:64-i64:64-i128:128-f80:128-n8:16:32:64-S128"
target triple = "x86_64-pc-linux-gnu"

@.str.1 = private unnamed_addr constant [14 x i8] c"pg_shdepend.c\00", align 1
@.str.6 = private unnamed_addr constant [33 x i8] c"role %u was concurrently dropped\00", align 1
@__func__.shdepLockAndCheckObject = private unnamed_addr constant [24 x i8] c"shdepLockAndCheckObject\00", align 1
@.str.7 = private unnamed_addr constant [39 x i8] c"tablespace %u was concurrently dropped\00", align 1
@.str.8 = private unnamed_addr constant [37 x i8] c"database %u was concurrently dropped\00", align 1
@.str.9 = private unnamed_addr constant [32 x i8] c"unrecognized shared classId: %u\00", align 1

; Function Attrs: inlinehint nounwind uwtable
define internal i64 @ObjectIdGetDatum(i32 noundef %0) #4 {
  %2 = alloca i32, align 4
  store i32 %0, ptr %2, align 4
  %3 = load i32, ptr %2, align 4
  %4 = zext i32 %3 to i64
  ret i64 %4
}

; Function Attrs: nounwind uwtable
define dso_local void @shdepLockAndCheckObject(i32 noundef %0, i32 noundef %1) #0 {
  %3 = alloca i32, align 4
  %4 = alloca i32, align 4
  %5 = alloca ptr, align 8
  %6 = alloca ptr, align 8
  store i32 %0, ptr %3, align 4
  store i32 %1, ptr %4, align 4
  %7 = load i32, ptr %3, align 4
  %8 = load i32, ptr %4, align 4
  call void @LockSharedObject(i32 noundef %7, i32 noundef %8, i16 noundef zeroext 0, i32 noundef 1)
  %9 = load i32, ptr %3, align 4
  switch i32 %9, label %67 [
    i32 1260, label %10
    i32 1213, label %27
    i32 1262, label %47
  ]

10:                                               ; preds = %2
  %11 = load i32, ptr %4, align 4
  %12 = call i64 @ObjectIdGetDatum(i32 noundef %11)
  %13 = call zeroext i1 @SearchSysCacheExists(i32 noundef 11, i64 noundef %12, i64 noundef 0, i64 noundef 0, i64 noundef 0)
  br i1 %13, label %26, label %14

14:                                               ; preds = %10
  br label %15

15:                                               ; preds = %14
  br i1 true, label %16, label %18

16:                                               ; preds = %15
  %17 = call zeroext i1 @errstart_cold(i32 noundef 21, ptr noundef null) #8
  br i1 %17, label %20, label %24

18:                                               ; preds = %15
  %19 = call zeroext i1 @errstart(i32 noundef 21, ptr noundef null)
  br i1 %19, label %20, label %24

20:                                               ; preds = %18, %16
  %21 = call i32 @errcode(i32 noundef 67137668)
  %22 = load i32, ptr %4, align 4
  %23 = call i32 (ptr, ...) @errmsg(ptr noundef @.str.6, i32 noundef %22)
  call void @errfinish(ptr noundef @.str.1, i32 noundef 1223, ptr noundef @__func__.shdepLockAndCheckObject)
  br label %24

24:                                               ; preds = %20, %18, %16
  unreachable

25:                                               ; No predecessors!
  br label %26

26:                                               ; preds = %25, %10
  br label %78

27:                                               ; preds = %2
  call void @llvm.lifetime.start.p0(i64 8, ptr %5) #7
  %28 = load i32, ptr %4, align 4
  %29 = call ptr @get_tablespace_name(i32 noundef %28)
  store ptr %29, ptr %5, align 8
  %30 = load ptr, ptr %5, align 8
  %31 = icmp eq ptr %30, null
  br i1 %31, label %32, label %45

32:                                               ; preds = %27
  br label %33

33:                                               ; preds = %32
  br i1 true, label %34, label %36

34:                                               ; preds = %33
  %35 = call zeroext i1 @errstart_cold(i32 noundef 21, ptr noundef null) #8
  br i1 %35, label %38, label %42

36:                                               ; preds = %33
  %37 = call zeroext i1 @errstart(i32 noundef 21, ptr noundef null)
  br i1 %37, label %38, label %42

38:                                               ; preds = %36, %34
  %39 = call i32 @errcode(i32 noundef 67137668)
  %40 = load i32, ptr %4, align 4
  %41 = call i32 (ptr, ...) @errmsg(ptr noundef @.str.7, i32 noundef %40)
  call void @errfinish(ptr noundef @.str.1, i32 noundef 1235, ptr noundef @__func__.shdepLockAndCheckObject)
  br label %42

42:                                               ; preds = %38, %36, %34
  unreachable

43:                                               ; No predecessors!
  br label %44

44:                                               ; preds = %43
  br label %45

45:                                               ; preds = %44, %27
  %46 = load ptr, ptr %5, align 8
  call void @pfree(ptr noundef %46)
  call void @llvm.lifetime.end.p0(i64 8, ptr %5) #7
  br label %78

47:                                               ; preds = %2
  call void @llvm.lifetime.start.p0(i64 8, ptr %6) #7
  %48 = load i32, ptr %4, align 4
  %49 = call ptr @get_database_name(i32 noundef %48)
  store ptr %49, ptr %6, align 8
  %50 = load ptr, ptr %6, align 8
  %51 = icmp eq ptr %50, null
  br i1 %51, label %52, label %65

52:                                               ; preds = %47
  br label %53

53:                                               ; preds = %52
  br i1 true, label %54, label %56

54:                                               ; preds = %53
  %55 = call zeroext i1 @errstart_cold(i32 noundef 21, ptr noundef null) #8
  br i1 %55, label %58, label %62

56:                                               ; preds = %53
  %57 = call zeroext i1 @errstart(i32 noundef 21, ptr noundef null)
  br i1 %57, label %58, label %62

58:                                               ; preds = %56, %54
  %59 = call i32 @errcode(i32 noundef 67137668)
  %60 = load i32, ptr %4, align 4
  %61 = call i32 (ptr, ...) @errmsg(ptr noundef @.str.8, i32 noundef %60)
  call void @errfinish(ptr noundef @.str.1, i32 noundef 1249, ptr noundef @__func__.shdepLockAndCheckObject)
  br label %62

62:                                               ; preds = %58, %56, %54
  unreachable

63:                                               ; No predecessors!
  br label %64

64:                                               ; preds = %63
  br label %65

65:                                               ; preds = %64, %47
  %66 = load ptr, ptr %6, align 8
  call void @pfree(ptr noundef %66)
  call void @llvm.lifetime.end.p0(i64 8, ptr %6) #7
  br label %78

67:                                               ; preds = %2
  br label %68

68:                                               ; preds = %67
  br i1 true, label %69, label %71

69:                                               ; preds = %68
  %70 = call zeroext i1 @errstart_cold(i32 noundef 21, ptr noundef null) #8
  br i1 %70, label %73, label %76

71:                                               ; preds = %68
  %72 = call zeroext i1 @errstart(i32 noundef 21, ptr noundef null)
  br i1 %72, label %73, label %76

73:                                               ; preds = %71, %69
  %74 = load i32, ptr %3, align 4
  %75 = call i32 (ptr, ...) @errmsg_internal(ptr noundef @.str.9, i32 noundef %74)
  call void @errfinish(ptr noundef @.str.1, i32 noundef 1256, ptr noundef @__func__.shdepLockAndCheckObject)
  br label %76

76:                                               ; preds = %73, %71, %69
  unreachable

77:                                               ; No predecessors!
  br label %78

78:                                               ; preds = %77, %65, %45, %26
  ret void
}