; Function Attrs: nounwind uwtable
define dso_local void @shdepLockAndCheckObject(i32 noundef %0, i32 noundef %1) local_unnamed_addr #0 {
  tail call void @LockSharedObject(i32 noundef %0, i32 noundef %1, i16 noundef zeroext 0, i32 noundef 1) #8
  switch i32 %0, label %24 [
    i32 1260, label %3
    i32 1213, label %10
    i32 1262, label %17
  ]

3:                                                ; preds = %2
  %4 = zext i32 %1 to i64
  %5 = tail call zeroext i1 @SearchSysCacheExists(i32 noundef 11, i64 noundef %4, i64 noundef 0, i64 noundef 0, i64 noundef 0) #8
  br i1 %5, label %27, label %6

6:                                                ; preds = %3
  %7 = tail call zeroext i1 @errstart_cold(i32 noundef 21, ptr noundef null) #9
  tail call void @llvm.assume(i1 %7)
  %8 = tail call i32 @errcode(i32 noundef 67137668) #8
  %9 = tail call i32 (ptr, ...) @errmsg(ptr noundef nonnull @.str.6, i32 noundef %1) #8
  tail call void @errfinish(ptr noundef nonnull @.str.1, i32 noundef 1223, ptr noundef nonnull @__func__.shdepLockAndCheckObject) #8
  unreachable

10:                                               ; preds = %2
  %11 = tail call ptr @get_tablespace_name(i32 noundef %1) #8
  %12 = icmp eq ptr %11, null
  br i1 %12, label %13, label %.sink.split

13:                                               ; preds = %10
  %14 = tail call zeroext i1 @errstart_cold(i32 noundef 21, ptr noundef null) #9
  tail call void @llvm.assume(i1 %14)
  %15 = tail call i32 @errcode(i32 noundef 67137668) #8
  %16 = tail call i32 (ptr, ...) @errmsg(ptr noundef nonnull @.str.7, i32 noundef %1) #8
  tail call void @errfinish(ptr noundef nonnull @.str.1, i32 noundef 1235, ptr noundef nonnull @__func__.shdepLockAndCheckObject) #8
  unreachable

17:                                               ; preds = %2
  %18 = tail call ptr @get_database_name(i32 noundef %1) #8
  %19 = icmp eq ptr %18, null
  br i1 %19, label %20, label %.sink.split

20:                                               ; preds = %17
  %21 = tail call zeroext i1 @errstart_cold(i32 noundef 21, ptr noundef null) #9
  tail call void @llvm.assume(i1 %21)
  %22 = tail call i32 @errcode(i32 noundef 67137668) #8
  %23 = tail call i32 (ptr, ...) @errmsg(ptr noundef nonnull @.str.8, i32 noundef %1) #8
  tail call void @errfinish(ptr noundef nonnull @.str.1, i32 noundef 1249, ptr noundef nonnull @__func__.shdepLockAndCheckObject) #8
  unreachable

24:                                               ; preds = %2
  %25 = tail call zeroext i1 @errstart_cold(i32 noundef 21, ptr noundef null) #9
  tail call void @llvm.assume(i1 %25)
  %26 = tail call i32 (ptr, ...) @errmsg_internal(ptr noundef nonnull @.str.9, i32 noundef %0) #8
  tail call void @errfinish(ptr noundef nonnull @.str.1, i32 noundef 1256, ptr noundef nonnull @__func__.shdepLockAndCheckObject) #8
  unreachable

.sink.split:                                      ; preds = %17, %10
  %.sink = phi ptr [ %11, %10 ], [ %18, %17 ]
  tail call void @pfree(ptr noundef nonnull %.sink) #8
  br label %27

27:                                               ; preds = %.sink.split, %3
  ret void
}